; ModuleID = 'bench/darktable/original/ppm.c.ll'
source_filename = "bench/darktable/original/ppm.c.ll"
target datalayout = "e-m:e-p270:32:32-p271:32:32-p272:64:64-i64:64-i128:128-f80:128-n8:16:32:64-S128"
target triple = "x86_64-pc-linux-gnu"

@.str = private unnamed_addr constant [3 x i8] c"wb\00", align 1
@.str.1 = private unnamed_addr constant [16 x i8] c"P6\0A%d %d\0A65535\0A\00", align 1
@.str.2 = private unnamed_addr constant [24 x i8] c"image/x-portable-pixmap\00", align 1
@.str.3 = private unnamed_addr constant [4 x i8] c"ppm\00", align 1
@.str.4 = private unnamed_addr constant [13 x i8] c"PPM (16-bit)\00", align 1

; Function Attrs: mustprogress nofree norecurse nosync nounwind willreturn memory(none) uwtable
define noundef i32 @dt_module_dt_version() local_unnamed_addr #0 {
  ret i32 25
}

; Function Attrs: mustprogress nofree norecurse nosync nounwind willreturn memory(none) uwtable
define noundef i32 @dt_module_mod_version() local_unnamed_addr #0 {
  ret i32 1
}

; Function Attrs: mustprogress nofree norecurse nosync nounwind willreturn memory(none) uwtable
define void @init(ptr nocapture noundef readnone %0) local_unnamed_addr #0 {
  ret void
}

; Function Attrs: mustprogress nofree norecurse nosync nounwind willreturn memory(none) uwtable
define void @cleanup(ptr nocapture noundef readnone %0) local_unnamed_addr #0 {
  ret void
}

; Function Attrs: nofree nounwind uwtable
define noundef i32 @write_image(ptr nocapture noundef readonly %0, ptr nocapture noundef readonly %1, ptr nocapture noundef readonly %2, i32 noundef %3, ptr nocapture noundef readnone %4, ptr nocapture noundef readnone %5, i32 noundef %6, i32 noundef %7, i32 noundef %8, i32 noundef %9, ptr nocapture noundef readnone %10, i32 noundef %11) local_unnamed_addr #1 {
  %13 = alloca [3 x i16], align 4
  call void @llvm.lifetime.start.p0(i64 6, ptr nonnull %13) #11
  %14 = tail call noalias ptr @fopen(ptr noundef %1, ptr noundef nonnull @.str)
  %15 = icmp eq ptr %14, null
  br i1 %15, label %61, label %16

16:                                               ; preds = %12
  %17 = getelementptr inbounds i8, ptr %0, i64 8
  %18 = load i32, ptr %17, align 4, !tbaa !6
  %19 = getelementptr inbounds i8, ptr %0, i64 12
  %20 = load i32, ptr %19, align 4, !tbaa !11
  %21 = tail call i32 (ptr, ptr, ...) @fprintf(ptr noundef nonnull %14, ptr noundef nonnull @.str.1, i32 noundef %18, i32 noundef %20) #11
  %22 = load i32, ptr %19, align 4, !tbaa !11
  %23 = icmp sgt i32 %22, 0
  br i1 %23, label %24, label %.loopexit

24:                                               ; preds = %16
  %25 = load i32, ptr %17, align 4, !tbaa !6
  %26 = icmp sgt i32 %25, 0
  br i1 %26, label %27, label %.loopexit

27:                                               ; preds = %24
  %28 = getelementptr inbounds i8, ptr %13, i64 4
  br label %31

29:                                               ; preds = %56
  %30 = load i32, ptr %17, align 4, !tbaa !6
  br label %31

31:                                               ; preds = %29, %27
  %32 = phi i32 [ %30, %29 ], [ %25, %27 ]
  %33 = phi i32 [ %57, %29 ], [ %22, %27 ]
  %34 = phi i32 [ %59, %29 ], [ 0, %27 ]
  %35 = phi ptr [ %58, %29 ], [ %2, %27 ]
  %36 = icmp sgt i32 %32, 0
  br i1 %36, label %.preheader, label %56

.loopexit:                                        ; preds = %56, %24, %16
  %37 = tail call i32 @fclose(ptr noundef nonnull %14)
  br label %61

.preheader:                                       ; preds = %31, %48
  %38 = phi i32 [ %50, %48 ], [ 0, %31 ]
  %39 = phi ptr [ %49, %48 ], [ %35, %31 ]
  %40 = load <2 x i16>, ptr %39, align 2, !tbaa !12
  %41 = tail call <2 x i16> @llvm.bswap.v2i16(<2 x i16> %40)
  store <2 x i16> %41, ptr %13, align 4, !tbaa !12
  %42 = getelementptr inbounds i8, ptr %39, i64 4
  %43 = load i16, ptr %42, align 2, !tbaa !12
  %44 = tail call i16 @llvm.bswap.i16(i16 %43)
  store i16 %44, ptr %28, align 4, !tbaa !12
  %45 = call i64 @fwrite(ptr noundef nonnull %13, i64 noundef 2, i64 noundef 3, ptr noundef nonnull %14)
  %46 = and i64 %45, 4294967295
  %47 = icmp eq i64 %46, 3
  br i1 %47, label %48, label %53

48:                                               ; preds = %.preheader
  %49 = getelementptr inbounds i8, ptr %39, i64 8
  %50 = add nuw nsw i32 %38, 1
  %51 = load i32, ptr %17, align 4, !tbaa !6
  %52 = icmp slt i32 %50, %51
  br i1 %52, label %.preheader, label %53

53:                                               ; preds = %48, %.preheader
  %54 = phi ptr [ %39, %.preheader ], [ %49, %48 ]
  %55 = load i32, ptr %19, align 4, !tbaa !11
  br label %56

56:                                               ; preds = %53, %31
  %57 = phi i32 [ %33, %31 ], [ %55, %53 ]
  %58 = phi ptr [ %35, %31 ], [ %54, %53 ]
  %59 = add nuw nsw i32 %34, 1
  %60 = icmp slt i32 %59, %57
  br i1 %60, label %29, label %.loopexit, !llvm.loop !14

61:                                               ; preds = %.loopexit, %12
  call void @llvm.lifetime.end.p0(i64 6, ptr nonnull %13) #11
  ret i32 0
}

; Function Attrs: mustprogress nocallback nofree nosync nounwind willreturn memory(argmem: readwrite)
declare void @llvm.lifetime.start.p0(i64 immarg, ptr nocapture) #2

; Function Attrs: nofree nounwind
declare noalias noundef ptr @fopen(ptr nocapture noundef readonly, ptr nocapture noundef readonly) local_unnamed_addr #3

; Function Attrs: nofree nounwind
declare noundef i32 @fprintf(ptr nocapture noundef, ptr nocapture noundef readonly, ...) local_unnamed_addr #3

; Function Attrs: mustprogress nocallback nofree nosync nounwind willreturn memory(argmem: readwrite)
declare void @llvm.lifetime.end.p0(i64 immarg, ptr nocapture) #2

; Function Attrs: nofree nounwind
declare noundef i64 @fwrite(ptr nocapture noundef, i64 noundef, i64 noundef, ptr nocapture noundef) local_unnamed_addr #3

; Function Attrs: nofree nounwind
declare noundef i32 @fclose(ptr nocapture noundef) local_unnamed_addr #3

; Function Attrs: mustprogress nofree norecurse nosync nounwind willreturn memory(none) uwtable
define noundef i64 @params_size(ptr nocapture noundef readnone %0) local_unnamed_addr #0 {
  ret i64 148
}

; Function Attrs: mustprogress nofree nounwind willreturn memory(inaccessiblemem: readwrite) uwtable
define noalias noundef ptr @get_params(ptr nocapture noundef readnone %0) local_unnamed_addr #4 {
  %2 = tail call noalias dereferenceable_or_null(148) ptr @calloc(i64 noundef 1, i64 noundef 148) #12
  ret ptr %2
}

; Function Attrs: mustprogress nofree nounwind willreturn allockind("alloc,zeroed") allocsize(0,1) memory(inaccessiblemem: readwrite)
declare noalias noundef ptr @calloc(i64 noundef, i64 noundef) local_unnamed_addr #5

; Function Attrs: mustprogress nounwind willreturn memory(argmem: readwrite, inaccessiblemem: readwrite) uwtable
define void @free_params(ptr nocapture noundef readnone %0, ptr nocapture noundef %1) local_unnamed_addr #6 {
  tail call void @free(ptr noundef %1) #11
  ret void
}

; Function Attrs: mustprogress nounwind willreturn allockind("free") memory(argmem: readwrite, inaccessiblemem: readwrite)
declare void @free(ptr allocptr nocapture noundef) local_unnamed_addr #7

; Function Attrs: nounwind uwtable
define i32 @set_params(ptr noundef %0, ptr nocapture noundef readnone %1, i32 noundef %2) local_unnamed_addr #8 {
  %4 = sext i32 %2 to i64
  %5 = getelementptr inbounds i8, ptr %0, i64 112
  %6 = load ptr, ptr %5, align 8, !tbaa !16
  %7 = tail call i64 %6(ptr noundef %0) #11
  %8 = icmp ne i64 %7, %4
  %9 = zext i1 %8 to i32
  ret i32 %9
}

; Function Attrs: mustprogress nofree norecurse nosync nounwind willreturn memory(none) uwtable
define noundef i32 @bpp(ptr nocapture noundef readnone %0) local_unnamed_addr #0 {
  ret i32 16
}

; Function Attrs: mustprogress nofree norecurse nosync nounwind willreturn memory(none) uwtable
define noundef i32 @levels(ptr nocapture noundef readnone %0) local_unnamed_addr #0 {
  ret i32 258
}

; Function Attrs: mustprogress nofree norecurse nosync nounwind willreturn memory(none) uwtable
define noundef nonnull ptr @mime(ptr nocapture noundef readnone %0) local_unnamed_addr #0 {
  ret ptr @.str.2
}

; Function Attrs: mustprogress nofree norecurse nosync nounwind willreturn memory(none) uwtable
define noundef nonnull ptr @extension(ptr nocapture noundef readnone %0) local_unnamed_addr #0 {
  ret ptr @.str.3
}

; Function Attrs: nounwind uwtable
define ptr @name() local_unnamed_addr #8 {
  %1 = tail call ptr @dcgettext(ptr noundef null, ptr noundef nonnull @.str.4, i32 noundef 5) #11
  ret ptr %1
}

; Function Attrs: nounwind
declare ptr @dcgettext(ptr noundef, ptr noundef, i32 noundef) local_unnamed_addr #9

; Function Attrs: mustprogress nofree norecurse nosync nounwind willreturn memory(none) uwtable
define void @gui_init(ptr nocapture noundef readnone %0) local_unnamed_addr #0 {
  ret void
}

; Function Attrs: mustprogress nofree norecurse nosync nounwind willreturn memory(none) uwtable
define void @gui_cleanup(ptr nocapture noundef readnone %0) local_unnamed_addr #0 {
  ret void
}

; Function Attrs: mustprogress nofree norecurse nosync nounwind willreturn memory(none) uwtable
define void @gui_reset(ptr nocapture noundef readnone %0) local_unnamed_addr #0 {
  ret void
}

; Function Attrs: mustprogress nocallback nofree nosync nounwind speculatable willreturn memory(none)
declare i16 @llvm.bswap.i16(i16) #10

; Function Attrs: mustprogress nocallback nofree nosync nounwind speculatable willreturn memory(none)
declare <2 x i16> @llvm.bswap.v2i16(<2 x i16>) #10


!llvm.module.flags = !{!0, !1, !2, !3, !4, !5}

!0 = !{i32 7, !"Dwarf Version", i32 5}
!1 = !{i32 2, !"Debug Info Version", i32 3}
!2 = !{i32 1, !"wchar_size", i32 4}
!3 = !{i32 8, !"PIC Level", i32 2}
!4 = !{i32 7, !"uwtable", i32 2}
!5 = !{i32 7, !"debug-info-assignment-tracking", i1 true}
!6 = !{!7, !8, i64 8}
!7 = !{!"dt_imageio_module_data_t", !8, i64 0, !8, i64 4, !8, i64 8, !8, i64 12, !9, i64 16, !8, i64 144}
!8 = !{!"int", !9, i64 0}
!9 = !{!"omnipotent char", !10, i64 0}
!10 = !{!"Simple C/C++ TBAA"}
!11 = !{!7, !8, i64 12}
!12 = !{!13, !13, i64 0}
!13 = !{!"short", !9, i64 0}
!14 = distinct !{!14, !15}
!15 = !{!"llvm.loop.unswitch.partial.disable"}
!16 = !{!17, !19, i64 112}
!17 = !{!"dt_imageio_module_format_t", !18, i64 0, !19, i64 48, !19, i64 56, !19, i64 64, !19, i64 72, !19, i64 80, !19, i64 88, !19, i64 96, !19, i64 104, !19, i64 112, !19, i64 120, !19, i64 128, !19, i64 136, !19, i64 144, !19, i64 152, !19, i64 160, !19, i64 168, !19, i64 176, !19, i64 184, !19, i64 192, !19, i64 200, !9, i64 208, !19, i64 336, !19, i64 344, !19, i64 352, !8, i64 360, !8, i64 364}
!18 = !{!"dt_action_t", !8, i64 0, !19, i64 8, !19, i64 16, !19, i64 24, !19, i64 32, !19, i64 40}
!19 = !{!"any pointer", !9, i64 0}
